target datalayout = "e-m:e-p270:32:32-p271:32:32-p272:64:64-i64:64-i128:128-f80:128-n8:16:32:64-S128"
target triple = "x86_64-pc-linux-gnu"

@.str = private unnamed_addr constant [15 x i8] c"parse_config.c\00", align 1
@__func__._handle_uint64 = private unnamed_addr constant [15 x i8] c"_handle_uint64\00", align 1

; Function Attrs: nounwind uwtable
define internal ptr @_handle_uint64(ptr noundef %0, ptr noundef %1) #0 {
  %3 = alloca ptr, align 8
  %4 = alloca ptr, align 8
  %5 = alloca ptr, align 8
  %6 = alloca ptr, align 8
  %7 = alloca i32, align 4
  store ptr %0, ptr %4, align 8
  store ptr %1, ptr %5, align 8
  call void @llvm.lifetime.start.p0(i64 8, ptr %6) #9
  %8 = call ptr @slurm_xcalloc(i64 noundef 1, i64 noundef 8, i1 noundef zeroext true, i1 noundef zeroext false, ptr noundef @.str, i32 noundef 597, ptr noundef @__func__._handle_uint64)
  store ptr %8, ptr %6, align 8
  %9 = load ptr, ptr %6, align 8
  %10 = load ptr, ptr %4, align 8
  %11 = load ptr, ptr %5, align 8
  %12 = call i32 @s_p_handle_uint64(ptr noundef %9, ptr noundef %10, ptr noundef %11)
  %13 = icmp eq i32 %12, -1
  br i1 %13, label %14, label %15

14:                                               ; preds = %2
  call void @slurm_xfree(ptr noundef %6)
  store ptr null, ptr %3, align 8
  store i32 1, ptr %7, align 4
  br label %17

15:                                               ; preds = %2
  %16 = load ptr, ptr %6, align 8
  store ptr %16, ptr %3, align 8
  store i32 1, ptr %7, align 4
  br label %17

17:                                               ; preds = %15, %14
  call void @llvm.lifetime.end.p0(i64 8, ptr %6) #9
  %18 = load ptr, ptr %3, align 8
  ret ptr %18
}